; Function Attrs: nounwind uwtable
define internal range(i32 0, 2) i32 @check_params_PEM(ptr noundef %0, i32 noundef %1, ptr noundef %2, ptr noundef %3, i64 %4) #1 {
  %6 = tail call i32 (ptr, i64, ptr, ...) @BIO_snprintf(ptr noundef nonnull @check_params_PEM.expected_pem_header, i64 noundef 80, ptr noundef nonnull @.str.330, ptr noundef %2) #8
  %7 = tail call i32 @test_int_gt(ptr noundef %0, i32 noundef %1, ptr noundef nonnull @.str.329, ptr noundef nonnull @.str.298, i32 noundef %6, i32 noundef 0) #8
  %.not = icmp eq i32 %7, 0
  br i1 %.not, label %13, label %8

8:                                                ; preds = %5
  %9 = tail call i64 @strlen(ptr noundef nonnull dereferenceable(1) @check_params_PEM.expected_pem_header) #9
  %10 = tail call i32 @test_strn_eq(ptr noundef %0, i32 noundef %1, ptr noundef nonnull @.str.322, ptr noundef nonnull @.str.323, ptr noundef %3, i64 noundef %9, ptr noundef nonnull @check_params_PEM.expected_pem_header, i64 noundef %9) #8
  %11 = icmp ne i32 %10, 0
  %12 = zext i1 %11 to i32
  br label %13

13:                                               ; preds = %8, %5
  %14 = phi i32 [ 0, %5 ], [ %12, %8 ]
  ret i32 %14
}